; ModuleID = '35/2317.c'
source_filename = "35/2317.c"
target datalayout = "e-m:e-p270:32:32-p271:32:32-p272:64:64-i64:64-f80:128-n8:16:32:64-S128"
target triple = "x86_64-pc-linux-gnu"

@.str = private unnamed_addr constant [6 x i8] c"%d,%d\00", align 1
@.str.1 = private unnamed_addr constant [3 x i8] c"%d\00", align 1
@.str.2 = private unnamed_addr constant [6 x i8] c"%d+%d\00", align 1
@.str.3 = private unnamed_addr constant [4 x i8] c"No\0A\00", align 1

; Function Attrs: noinline nounwind uwtable
define dso_local void @main() #0 {
  %1 = alloca [9 x [9 x i32]], align 16
  %2 = alloca i32, align 4
  %3 = alloca i32, align 4
  %4 = alloca i32, align 4
  %5 = alloca i32, align 4
  %6 = alloca i32, align 4
  %7 = alloca i32, align 4
  %8 = alloca i32, align 4
  %9 = alloca i32, align 4
  %10 = alloca i32, align 4
  %11 = alloca i32, align 4
  store i32 0, i32* %11, align 4
  %12 = call i32 (i8*, ...) @__isoc99_scanf(i8* getelementptr inbounds ([6 x i8], [6 x i8]* @.str, i64 0, i64 0), i32* %2, i32* %3)
  store i32 0, i32* %8, align 4
  br label %13

13:                                               ; preds = %34, %0
  %14 = load i32, i32* %8, align 4
  %15 = load i32, i32* %2, align 4
  %16 = icmp slt i32 %14, %15
  br i1 %16, label %17, label %37

17:                                               ; preds = %13
  store i32 0, i32* %9, align 4
  br label %18

18:                                               ; preds = %30, %17
  %19 = load i32, i32* %9, align 4
  %20 = load i32, i32* %3, align 4
  %21 = icmp slt i32 %19, %20
  br i1 %21, label %22, label %33

22:                                               ; preds = %18
  %23 = load i32, i32* %8, align 4
  %24 = sext i32 %23 to i64
  %25 = getelementptr inbounds [9 x [9 x i32]], [9 x [9 x i32]]* %1, i64 0, i64 %24
  %26 = load i32, i32* %9, align 4
  %27 = sext i32 %26 to i64
  %28 = getelementptr inbounds [9 x i32], [9 x i32]* %25, i64 0, i64 %27
  %29 = call i32 (i8*, ...) @__isoc99_scanf(i8* getelementptr inbounds ([3 x i8], [3 x i8]* @.str.1, i64 0, i64 0), i32* %28)
  br label %30

30:                                               ; preds = %22
  %31 = load i32, i32* %9, align 4
  %32 = add nsw i32 %31, 1
  store i32 %32, i32* %9, align 4
  br label %18

33:                                               ; preds = %18
  br label %34

34:                                               ; preds = %33
  %35 = load i32, i32* %8, align 4
  %36 = add nsw i32 %35, 1
  store i32 %36, i32* %8, align 4
  br label %13

37:                                               ; preds = %13
  store i32 0, i32* %4, align 4
  br label %38

38:                                               ; preds = %111, %37
  %39 = load i32, i32* %4, align 4
  %40 = load i32, i32* %2, align 4
  %41 = icmp slt i32 %39, %40
  br i1 %41, label %42, label %114

42:                                               ; preds = %38
  store i32 0, i32* %5, align 4
  br label %43

43:                                               ; preds = %107, %42
  %44 = load i32, i32* %5, align 4
  %45 = load i32, i32* %3, align 4
  %46 = icmp slt i32 %44, %45
  br i1 %46, label %47, label %110

47:                                               ; preds = %43
  store i32 0, i32* %10, align 4
  store i32 0, i32* %6, align 4
  br label %48

48:                                               ; preds = %70, %47
  %49 = load i32, i32* %6, align 4
  %50 = load i32, i32* %2, align 4
  %51 = icmp slt i32 %49, %50
  br i1 %51, label %52, label %73

52:                                               ; preds = %48
  %53 = load i32, i32* %4, align 4
  %54 = sext i32 %53 to i64
  %55 = getelementptr inbounds [9 x [9 x i32]], [9 x [9 x i32]]* %1, i64 0, i64 %54
  %56 = load i32, i32* %5, align 4
  %57 = sext i32 %56 to i64
  %58 = getelementptr inbounds [9 x i32], [9 x i32]* %55, i64 0, i64 %57
  %59 = load i32, i32* %58, align 4
  %60 = load i32, i32* %6, align 4
  %61 = sext i32 %60 to i64
  %62 = getelementptr inbounds [9 x [9 x i32]], [9 x [9 x i32]]* %1, i64 0, i64 %61
  %63 = load i32, i32* %5, align 4
  %64 = sext i32 %63 to i64
  %65 = getelementptr inbounds [9 x i32], [9 x i32]* %62, i64 0, i64 %64
  %66 = load i32, i32* %65, align 4
  %67 = icmp sgt i32 %59, %66
  br i1 %67, label %68, label %69

68:                                               ; preds = %52
  store i32 1, i32* %10, align 4
  br label %73

69:                                               ; preds = %52
  br label %70

70:                                               ; preds = %69
  %71 = load i32, i32* %6, align 4
  %72 = add nsw i32 %71, 1
  store i32 %72, i32* %6, align 4
  br label %48

73:                                               ; preds = %68, %48
  store i32 0, i32* %7, align 4
  br label %74

74:                                               ; preds = %96, %73
  %75 = load i32, i32* %7, align 4
  %76 = load i32, i32* %3, align 4
  %77 = icmp slt i32 %75, %76
  br i1 %77, label %78, label %99

78:                                               ; preds = %74
  %79 = load i32, i32* %4, align 4
  %80 = sext i32 %79 to i64
  %81 = getelementptr inbounds [9 x [9 x i32]], [9 x [9 x i32]]* %1, i64 0, i64 %80
  %82 = load i32, i32* %5, align 4
  %83 = sext i32 %82 to i64
  %84 = getelementptr inbounds [9 x i32], [9 x i32]* %81, i64 0, i64 %83
  %85 = load i32, i32* %84, align 4
  %86 = load i32, i32* %4, align 4
  %87 = sext i32 %86 to i64
  %88 = getelementptr inbounds [9 x [9 x i32]], [9 x [9 x i32]]* %1, i64 0, i64 %87
  %89 = load i32, i32* %7, align 4
  %90 = sext i32 %89 to i64
  %91 = getelementptr inbounds [9 x i32], [9 x i32]* %88, i64 0, i64 %90
  %92 = load i32, i32* %91, align 4
  %93 = icmp slt i32 %85, %92
  br i1 %93, label %94, label %95

94:                                               ; preds = %78
  store i32 1, i32* %10, align 4
  br label %99

95:                                               ; preds = %78
  br label %96

96:                                               ; preds = %95
  %97 = load i32, i32* %7, align 4
  %98 = add nsw i32 %97, 1
  store i32 %98, i32* %7, align 4
  br label %74

99:                                               ; preds = %94, %74
  %100 = load i32, i32* %10, align 4
  %101 = icmp eq i32 %100, 0
  br i1 %101, label %102, label %106

102:                                              ; preds = %99
  %103 = load i32, i32* %4, align 4
  %104 = load i32, i32* %5, align 4
  %105 = call i32 (i8*, ...) @printf(i8* getelementptr inbounds ([6 x i8], [6 x i8]* @.str.2, i64 0, i64 0), i32 %103, i32 %104)
  store i32 1, i32* %11, align 4
  br label %106

106:                                              ; preds = %102, %99
  br label %107

107:                                              ; preds = %106
  %108 = load i32, i32* %5, align 4
  %109 = add nsw i32 %108, 1
  store i32 %109, i32* %5, align 4
  br label %43

110:                                              ; preds = %43
  br label %111

111:                                              ; preds = %110
  %112 = load i32, i32* %4, align 4
  %113 = add nsw i32 %112, 1
  store i32 %113, i32* %4, align 4
  br label %38

114:                                              ; preds = %38
  %115 = load i32, i32* %11, align 4
  %116 = icmp eq i32 %115, 0
  br i1 %116, label %117, label %119

117:                                              ; preds = %114
  %118 = call i32 (i8*, ...) @printf(i8* getelementptr inbounds ([4 x i8], [4 x i8]* @.str.3, i64 0, i64 0))
  br label %119

119:                                              ; preds = %117, %114
  ret void
}

declare dso_local i32 @__isoc99_scanf(i8*, ...) #1

declare dso_local i32 @printf(i8*, ...) #1


!llvm.module.flags = !{!0}
!llvm.ident = !{!1}

!0 = !{i32 1, !"wchar_size", i32 4}
!1 = !{!"clang version 10.0.0-4ubuntu1 "}
